target datalayout = "e-m:e-p270:32:32-p271:32:32-p272:64:64-i64:64-i128:128-f80:128-n8:16:32:64-S128"
target triple = "x86_64-pc-linux-gnu"

%struct.ident_t = type { i32, i32, i32, i32, ptr }
%class.anon.139 = type { ptr, ptr }

@1 = private unnamed_addr constant %struct.ident_t { i32 0, i32 514, i32 0, i32 22, ptr @0 }, align 8

; Function Attrs: noinline noreturn nounwind ssp uwtable
define linkonce_odr hidden void @__clang_call_terminate(ptr noundef %0) #9 comdat {
  %2 = call ptr @__cxa_begin_catch(ptr %0) #25
  call void @_ZSt9terminatev() #29
  unreachable
}

; Function Attrs: inlinehint mustprogress nounwind ssp uwtable
define internal void @"_ZZZZZN6open3d4core6kernel7CopyCPUERKNS0_6TensorERS2_ENK3$_0clEvENKUlvE0_clEvENKUlvE8_clEvENKUllE_clEl"(ptr noundef nonnull align 8 dereferenceable(16) %0, i64 noundef %1) #3 align 2 {
  %3 = alloca ptr, align 8
  %4 = alloca i64, align 8
  store ptr %0, ptr %3, align 8, !tbaa !49
  store i64 %1, ptr %4, align 8, !tbaa !11
  %5 = load ptr, ptr %3, align 8
  %6 = getelementptr inbounds nuw %class.anon.139, ptr %5, i32 0, i32 1
  %7 = load ptr, ptr %6, align 8, !tbaa !896
  %8 = load i64, ptr %7, align 8, !tbaa !11
  %9 = getelementptr inbounds nuw %class.anon.139, ptr %5, i32 0, i32 0
  %10 = load ptr, ptr %9, align 8, !tbaa !898
  %11 = load ptr, ptr %10, align 8, !tbaa !15
  %12 = load i64, ptr %4, align 8, !tbaa !11
  %13 = getelementptr inbounds i64, ptr %11, i64 %12
  store i64 %8, ptr %13, align 8, !tbaa !11
  ret void
}

; Function Attrs: alwaysinline norecurse nounwind ssp uwtable
define internal void @"_ZN6open3d4core15ParallelForCPU_IZZZZNS0_6kernel7CopyCPUERKNS0_6TensorERS3_ENK3$_0clEvENKUlvE0_clEvENKUlvE8_clEvEUllE_EEvRKNS0_6DeviceElRKT_.omp_outlined"(ptr noalias noundef %0, ptr noalias noundef %1, ptr noundef nonnull align 8 dereferenceable(8) %2, ptr noundef nonnull align 8 dereferenceable(16) %3) #24 personality ptr @__gxx_personality_v0 {
  %5 = alloca ptr, align 8
  %6 = alloca ptr, align 8
  %7 = alloca ptr, align 8
  %8 = alloca ptr, align 8
  %9 = alloca ptr, align 8
  %10 = alloca i64, align 8
  %11 = alloca i64, align 8
  %12 = alloca i64, align 8
  %13 = alloca i64, align 8
  %14 = alloca i64, align 8
  %15 = alloca i64, align 8
  %16 = alloca i64, align 8
  %17 = alloca i32, align 4
  %18 = alloca i64, align 8
  store ptr %0, ptr %5, align 8, !tbaa !240
  store ptr %1, ptr %6, align 8, !tbaa !240
  store ptr %2, ptr %7, align 8, !tbaa !15
  store ptr %3, ptr %8, align 8, !tbaa !49
  %19 = load ptr, ptr %7, align 8, !tbaa !15
  %20 = load ptr, ptr %8, align 8, !tbaa !49
  store ptr %20, ptr %9, align 8
  call void @llvm.lifetime.start.p0(i64 8, ptr %10) #25
  call void @llvm.lifetime.start.p0(i64 8, ptr %11) #25
  %21 = load i64, ptr %19, align 8, !tbaa !11
  store i64 %21, ptr %11, align 8, !tbaa !11
  call void @llvm.lifetime.start.p0(i64 8, ptr %12) #25
  %22 = load i64, ptr %11, align 8, !tbaa !11
  %23 = sub nsw i64 %22, 0
  %24 = sdiv i64 %23, 1
  %25 = sub nsw i64 %24, 1
  store i64 %25, ptr %12, align 8, !tbaa !11
  call void @llvm.lifetime.start.p0(i64 8, ptr %13) #25
  store i64 0, ptr %13, align 8, !tbaa !11
  call void @llvm.lifetime.end.p0(i64 8, ptr %13) #25
  %26 = load i64, ptr %11, align 8, !tbaa !11
  %27 = icmp slt i64 0, %26
  br i1 %27, label %28, label %62

28:                                               ; preds = %4
  call void @llvm.lifetime.start.p0(i64 8, ptr %14) #25
  store i64 0, ptr %14, align 8, !tbaa !11
  call void @llvm.lifetime.start.p0(i64 8, ptr %15) #25
  %29 = load i64, ptr %12, align 8, !tbaa !11
  store i64 %29, ptr %15, align 8, !tbaa !11
  call void @llvm.lifetime.start.p0(i64 8, ptr %16) #25
  store i64 1, ptr %16, align 8, !tbaa !11
  call void @llvm.lifetime.start.p0(i64 4, ptr %17) #25
  store i32 0, ptr %17, align 4, !tbaa !103
  call void @llvm.lifetime.start.p0(i64 8, ptr %18) #25
  %30 = load ptr, ptr %5, align 8
  %31 = load i32, ptr %30, align 4, !tbaa !103
  call void @__kmpc_for_static_init_8(ptr @1, i32 %31, i32 34, ptr %17, ptr %14, ptr %15, ptr %16, i64 1, i64 1)
  %32 = load i64, ptr %15, align 8, !tbaa !11
  %33 = load i64, ptr %12, align 8, !tbaa !11
  %34 = icmp sgt i64 %32, %33
  br i1 %34, label %35, label %37

35:                                               ; preds = %28
  %36 = load i64, ptr %12, align 8, !tbaa !11
  br label %39

37:                                               ; preds = %28
  %38 = load i64, ptr %15, align 8, !tbaa !11
  br label %39

39:                                               ; preds = %37, %35
  %40 = phi i64 [ %36, %35 ], [ %38, %37 ]
  store i64 %40, ptr %15, align 8, !tbaa !11
  %41 = load i64, ptr %14, align 8, !tbaa !11
  store i64 %41, ptr %10, align 8, !tbaa !11
  br label %42

42:                                               ; preds = %55, %39
  %43 = load i64, ptr %10, align 8, !tbaa !11
  %44 = load i64, ptr %15, align 8, !tbaa !11
  %45 = icmp sle i64 %43, %44
  br i1 %45, label %47, label %46

46:                                               ; preds = %42
  br label %58

47:                                               ; preds = %42
  %48 = load i64, ptr %10, align 8, !tbaa !11
  %49 = mul nsw i64 %48, 1
  %50 = add nsw i64 0, %49
  store i64 %50, ptr %18, align 8, !tbaa !11
  %51 = load ptr, ptr %9, align 8, !tbaa !49
  %52 = load i64, ptr %18, align 8, !tbaa !11
  invoke void @"_ZZZZZN6open3d4core6kernel7CopyCPUERKNS0_6TensorERS2_ENK3$_0clEvENKUlvE0_clEvENKUlvE8_clEvENKUllE_clEl"(ptr noundef nonnull align 8 dereferenceable(16) %51, i64 noundef %52)
          to label %53 unwind label %63

53:                                               ; preds = %47
  br label %54

54:                                               ; preds = %53
  br label %55

55:                                               ; preds = %54
  %56 = load i64, ptr %10, align 8, !tbaa !11
  %57 = add nsw i64 %56, 1
  store i64 %57, ptr %10, align 8, !tbaa !11
  br label %42

58:                                               ; preds = %46
  br label %59

59:                                               ; preds = %58
  %60 = load ptr, ptr %5, align 8
  %61 = load i32, ptr %60, align 4, !tbaa !103
  call void @__kmpc_for_static_fini(ptr @1, i32 %61)
  call void @llvm.lifetime.end.p0(i64 8, ptr %18) #25
  call void @llvm.lifetime.end.p0(i64 4, ptr %17) #25
  call void @llvm.lifetime.end.p0(i64 8, ptr %16) #25
  call void @llvm.lifetime.end.p0(i64 8, ptr %15) #25
  call void @llvm.lifetime.end.p0(i64 8, ptr %14) #25
  br label %62

62:                                               ; preds = %59, %4
  call void @llvm.lifetime.end.p0(i64 8, ptr %12) #25
  call void @llvm.lifetime.end.p0(i64 8, ptr %11) #25
  call void @llvm.lifetime.end.p0(i64 8, ptr %10) #25
  ret void

63:                                               ; preds = %47
  %64 = landingpad { ptr, i32 }
          catch ptr null
  %65 = extractvalue { ptr, i32 } %64, 0
  call void @__clang_call_terminate(ptr %65) #29
  unreachable
}